target datalayout = "e-m:e-p270:32:32-p271:32:32-p272:64:64-i64:64-f80:128-n8:16:32:64-S128"
target triple = "x86_64-pc-linux-gnu"

@.str = private unnamed_addr constant [4 x i8] c"%d\0A\00", align 1
@.str.1 = private unnamed_addr constant [3 x i8] c"NO\00", align 1
@.str.2 = private unnamed_addr constant [3 x i8] c"%c\00", align 1

; Function Attrs: noinline nounwind uwtable
define dso_local void @main() #0 {
  %1 = alloca [500 x i8], align 16
  %2 = alloca i32, align 4
  %3 = alloca i32, align 4
  %4 = alloca i32, align 4
  %5 = alloca i32, align 4
  %6 = alloca i32, align 4
  %7 = alloca i32, align 4
  %8 = alloca [500 x i32], align 16
  %9 = alloca i32, align 4
  %10 = bitcast [500 x i32]* %8 to i8*
  call void @llvm.memset.p0i8.i64(i8* align 16 %10, i8 0, i64 2000, i1 false)
  %11 = call i32 (i8*, ...) @__isoc99_scanf(i8* getelementptr inbounds ([4 x i8], [4 x i8]* @.str, i64 0, i64 0), i32* %2)
  %12 = getelementptr inbounds [500 x i8], [500 x i8]* %1, i64 0, i64 0
  %13 = call i32 (i8*, ...) bitcast (i32 (...)* @gets to i32 (i8*, ...)*)(i8* %12)
  %14 = getelementptr inbounds [500 x i8], [500 x i8]* %1, i64 0, i64 0
  %15 = call i64 @strlen(i8* %14) #4
  %16 = trunc i64 %15 to i32
  store i32 %16, i32* %7, align 4
  store i32 0, i32* %4, align 4
  br label %17

17:                                               ; preds = %76, %0
  %18 = load i32, i32* %4, align 4
  %19 = load i32, i32* %7, align 4
  %20 = load i32, i32* %2, align 4
  %21 = sub nsw i32 %19, %20
  %22 = icmp sle i32 %18, %21
  br i1 %22, label %23, label %79

23:                                               ; preds = %17
  %24 = load i32, i32* %4, align 4
  store i32 %24, i32* %5, align 4
  br label %25

25:                                               ; preds = %72, %23
  %26 = load i32, i32* %5, align 4
  %27 = load i32, i32* %7, align 4
  %28 = load i32, i32* %2, align 4
  %29 = sub nsw i32 %27, %28
  %30 = icmp sle i32 %26, %29
  br i1 %30, label %31, label %75

31:                                               ; preds = %25
  store i32 1, i32* %9, align 4
  store i32 0, i32* %6, align 4
  br label %32

32:                                               ; preds = %59, %31
  %33 = load i32, i32* %6, align 4
  %34 = load i32, i32* %2, align 4
  %35 = icmp slt i32 %33, %34
  br i1 %35, label %36, label %62

36:                                               ; preds = %32
  %37 = load i32, i32* %4, align 4
  %38 = load i32, i32* %6, align 4
  %39 = add nsw i32 %37, %38
  %40 = sext i32 %39 to i64
  %41 = getelementptr inbounds [500 x i8], [500 x i8]* %1, i64 0, i64 %40
  %42 = load i8, i8* %41, align 1
  %43 = sext i8 %42 to i32
  %44 = load i32, i32* %5, align 4
  %45 = load i32, i32* %6, align 4
  %46 = add nsw i32 %44, %45
  %47 = sext i32 %46 to i64
  %48 = getelementptr inbounds [500 x i8], [500 x i8]* %1, i64 0, i64 %47
  %49 = load i8, i8* %48, align 1
  %50 = sext i8 %49 to i32
  %51 = icmp eq i32 %43, %50
  br i1 %51, label %52, label %55

52:                                               ; preds = %36
  %53 = load i32, i32* %9, align 4
  %54 = mul nsw i32 %53, 1
  store i32 %54, i32* %9, align 4
  br label %58

55:                                               ; preds = %36
  %56 = load i32, i32* %9, align 4
  %57 = mul nsw i32 %56, 0
  store i32 %57, i32* %9, align 4
  br label %58

58:                                               ; preds = %55, %52
  br label %59

59:                                               ; preds = %58
  %60 = load i32, i32* %6, align 4
  %61 = add nsw i32 %60, 1
  store i32 %61, i32* %6, align 4
  br label %32

62:                                               ; preds = %32
  %63 = load i32, i32* %9, align 4
  %64 = icmp eq i32 %63, 1
  br i1 %64, label %65, label %71

65:                                               ; preds = %62
  %66 = load i32, i32* %4, align 4
  %67 = sext i32 %66 to i64
  %68 = getelementptr inbounds [500 x i32], [500 x i32]* %8, i64 0, i64 %67
  %69 = load i32, i32* %68, align 4
  %70 = add nsw i32 %69, 1
  store i32 %70, i32* %68, align 4
  br label %71

71:                                               ; preds = %65, %62
  br label %72

72:                                               ; preds = %71
  %73 = load i32, i32* %5, align 4
  %74 = add nsw i32 %73, 1
  store i32 %74, i32* %5, align 4
  br label %25

75:                                               ; preds = %25
  br label %76

76:                                               ; preds = %75
  %77 = load i32, i32* %4, align 4
  %78 = add nsw i32 %77, 1
  store i32 %78, i32* %4, align 4
  br label %17

79:                                               ; preds = %17
  store i32 0, i32* %3, align 4
  store i32 0, i32* %4, align 4
  br label %80

80:                                               ; preds = %99, %79
  %81 = load i32, i32* %4, align 4
  %82 = load i32, i32* %7, align 4
  %83 = load i32, i32* %2, align 4
  %84 = sub nsw i32 %82, %83
  %85 = icmp sle i32 %81, %84
  br i1 %85, label %86, label %102

86:                                               ; preds = %80
  %87 = load i32, i32* %4, align 4
  %88 = sext i32 %87 to i64
  %89 = getelementptr inbounds [500 x i32], [500 x i32]* %8, i64 0, i64 %88
  %90 = load i32, i32* %89, align 4
  %91 = load i32, i32* %3, align 4
  %92 = icmp sgt i32 %90, %91
  br i1 %92, label %93, label %98

93:                                               ; preds = %86
  %94 = load i32, i32* %4, align 4
  %95 = sext i32 %94 to i64
  %96 = getelementptr inbounds [500 x i32], [500 x i32]* %8, i64 0, i64 %95
  %97 = load i32, i32* %96, align 4
  store i32 %97, i32* %3, align 4
  br label %98

98:                                               ; preds = %93, %86
  br label %99

99:                                               ; preds = %98
  %100 = load i32, i32* %4, align 4
  %101 = add nsw i32 %100, 1
  store i32 %101, i32* %4, align 4
  br label %80

102:                                              ; preds = %80
  %103 = load i32, i32* %3, align 4
  %104 = icmp sle i32 %103, 1
  br i1 %104, label %105, label %107

105:                                              ; preds = %102
  %106 = call i32 (i8*, ...) @printf(i8* getelementptr inbounds ([3 x i8], [3 x i8]* @.str.1, i64 0, i64 0))
  br label %110

107:                                              ; preds = %102
  %108 = load i32, i32* %3, align 4
  %109 = call i32 (i8*, ...) @printf(i8* getelementptr inbounds ([4 x i8], [4 x i8]* @.str, i64 0, i64 0), i32 %108)
  br label %110

110:                                              ; preds = %107, %105
  store i32 0, i32* %4, align 4
  br label %111

111:                                              ; preds = %150, %110
  %112 = load i32, i32* %4, align 4
  %113 = load i32, i32* %7, align 4
  %114 = load i32, i32* %2, align 4
  %115 = sub nsw i32 %113, %114
  %116 = icmp sle i32 %112, %115
  br i1 %116, label %117, label %153

117:                                              ; preds = %111
  %118 = load i32, i32* %4, align 4
  %119 = sext i32 %118 to i64
  %120 = getelementptr inbounds [500 x i32], [500 x i32]* %8, i64 0, i64 %119
  %121 = load i32, i32* %120, align 4
  %122 = load i32, i32* %3, align 4
  %123 = icmp eq i32 %121, %122
  br i1 %123, label %124, label %149

124:                                              ; preds = %117
  %125 = load i32, i32* %4, align 4
  %126 = sext i32 %125 to i64
  %127 = getelementptr inbounds [500 x i32], [500 x i32]* %8, i64 0, i64 %126
  %128 = load i32, i32* %127, align 4
  %129 = icmp sgt i32 %128, 1
  br i1 %129, label %130, label %149

130:                                              ; preds = %124
  store i32 0, i32* %6, align 4
  br label %131

131:                                              ; preds = %144, %130
  %132 = load i32, i32* %6, align 4
  %133 = load i32, i32* %2, align 4
  %134 = icmp slt i32 %132, %133
  br i1 %134, label %135, label %147

135:                                              ; preds = %131
  %136 = load i32, i32* %4, align 4
  %137 = load i32, i32* %6, align 4
  %138 = add nsw i32 %136, %137
  %139 = sext i32 %138 to i64
  %140 = getelementptr inbounds [500 x i8], [500 x i8]* %1, i64 0, i64 %139
  %141 = load i8, i8* %140, align 1
  %142 = sext i8 %141 to i32
  %143 = call i32 (i8*, ...) @printf(i8* getelementptr inbounds ([3 x i8], [3 x i8]* @.str.2, i64 0, i64 0), i32 %142)
  br label %144

144:                                              ; preds = %135
  %145 = load i32, i32* %6, align 4
  %146 = add nsw i32 %145, 1
  store i32 %146, i32* %6, align 4
  br label %131

147:                                              ; preds = %131
  %148 = call i32 @putchar(i32 10)
  br label %149

149:                                              ; preds = %147, %124, %117
  br label %150

150:                                              ; preds = %149
  %151 = load i32, i32* %4, align 4
  %152 = add nsw i32 %151, 1
  store i32 %152, i32* %4, align 4
  br label %111

153:                                              ; preds = %111
  ret void
}